Certificate:
    Data:
        Version: 3 (0x2)
        Serial Number:
            47:21:1c:12:fe:34:0e:5c:d8:53:7c:2c:96:7d:ef:ca:4f:a7:b9:cb
        Signature Algorithm: sha256WithRSAEncryption
        Issuer: C = US, ST = Vermont, CN = Awesome CA
        Validity
            Not Before: Apr 18 18:07:59 2019 GMT
            Not After : Apr 16 18:07:59 2024 GMT
        Subject: CN = localhost
        Subject Public Key Info:
            Public Key Algorithm: rsaEncryption
                RSA Public-Key: (2048 bit)
                Modulus:
                    00:c9:76:22:4b:1e:dd:9e:e3:51:38:ff:0a:6d:72:
                    86:8d:52:07:ba:84:d9:ac:62:44:4a:6e:5e:4a:32:
                    25:58:e4:93:b1:86:e0:db:c5:ae:7a:af:a4:3e:36:
                    c5:99:06:b8:4e:ee:02:e2:8a:6c:95:1a:df:3f:ee:
                    59:dd:7f:55:91:ce:10:3c:cb:c2:2f:15:43:dc:be:
                    54:7d:d8:18:46:39:67:f2:0a:38:65:95:d8:0f:bb:
                    3a:b6:36:88:c4:23:df:ac:84:d4:7a:cc:00:6b:ec:
                    66:3d:f3:5e:e5:62:0a:cd:96:e5:c0:a1:49:aa:35:
                    bc:e3:1f:84:47:08:62:9a:ce:cd:32:a6:4f:da:e1:
                    1f:7a:dc:30:67:a5:38:e8:82:cd:ce:31:ca:56:da:
                    ff:14:b1:98:ee:e7:93:0c:d2:3f:3a:e5:9a:40:71:
                    97:fd:ce:6f:e6:c9:ad:20:63:53:e6:de:06:91:1b:
                    a4:40:12:f3:c4:36:54:8b:ea:0b:c2:c4:df:da:35:
                    51:c5:71:b6:6f:e8:0b:1e:3e:c8:d7:86:4e:6e:bb:
                    ca:5e:ed:79:e9:dc:02:b4:06:5f:dd:8d:44:d6:ab:
                    64:fe:9c:2a:83:89:3e:e5:16:e8:fc:4c:d5:b2:89:
                    1f:c0:4c:25:80:1b:8d:fc:96:46:1d:bc:04:f5:e4:
                    dd:af
                Exponent: 65537 (0x10001)
        X509v3 extensions:
            X509v3 Authority Key Identifier: 
                keyid:56:96:E1:E9:7D:FD:BC:C0:5E:8E:E6:F8:04:D1:F6:D3:28:B4:36:57

            X509v3 Basic Constraints: 
                CA:FALSE
            X509v3 Key Usage: 
                Digital Signature, Non Repudiation, Key Encipherment, Data Encipherment
            X509v3 Subject Alternative Name: 
                DNS:localhost
    Signature Algorithm: sha256WithRSAEncryption
         42:46:ce:3b:c7:ca:de:8f:7e:77:8d:f1:6c:e1:00:72:c9:50:
         a5:89:57:1d:26:d3:2b:16:55:4b:69:a8:12:10:6c:75:8a:3a:
         db:de:a7:57:7a:91:33:c5:83:76:0d:03:91:25:65:42:76:07:
         92:d2:18:d5:45:97:9f:4e:fa:fb:3c:f9:a5:2c:7c:0a:f1:45:
         b0:db:68:98:bf:0f:57:07:b3:d5:99:c3:97:75:7b:75:54:e9:
         9e:5c:82:ae:b4:5e:b1:98:f3:d6:14:ba:8f:39:b5:35:35:e7:
         fd:71:da:d8:e4:9b:c4:4c:37:e5:ca:51:7e:b3:61:9b:48:17:
         2c:63:05:57:f2:c0:e4:d8:e8:a0:96:4f:2a:c5:80:2b:be:5a:
         75:9f:d1:ca:94:32:73:7a:2b:f8:b2:fd:5c:43:36:e8:45:de:
         0d:9c:31:7d:4a:35:d4:80:79:e1:67:1d:f9:6a:7f:58:1c:a5:
         9a:20:4f:c0:a9:bc:cc:ca:7e:e2:80:ae:1a:90:a7:23:46:00:
         05:3a:8f:83:55:33:34:f9:cf:40:70:17:e5:87:e0:a2:5a:70:
         23:26:0d:2d:a7:f4:55:5c:3e:a4:e7:02:b5:bd:bb:38:43:89:
         f6:58:86:58:ea:ef:0b:d3:c4:47:da:93:a6:b0:0b:f2:81:58:
         64:af:0b:d8
-----BEGIN CERTIFICATE-----
MIIDJzCCAg+gAwIBAgIURyEcEv40DlzYU3wsln3vyk+nucswDQYJKoZIhvcNAQEL
BQAwNDELMAkGA1UEBhMCVVMxEDAOBgNVBAgMB1Zlcm1vbnQxEzARBgNVBAMMCkF3
ZXNvbWUgQ0EwHhcNMTkwNDE4MTgwNzU5WhcNMjQwNDE2MTgwNzU5WjAUMRIwEAYD
VQQDDAlsb2NhbGhvc3QwggEiMA0GCSqGSIb3DQEBAQUAA4IBDwAwggEKAoIBAQDJ
diJLHt2e41E4/wptcoaNUge6hNmsYkRKbl5KMiVY5JOxhuDbxa56r6Q+NsWZBrhO
7gLiimyVGt8/7lndf1WRzhA8y8IvFUPcvlR92BhGOWfyCjhlldgPuzq2NojEI9+s
hNR6zABr7GY9817lYgrNluXAoUmqNbzjH4RHCGKazs0ypk/a4R963DBnpTjogs3O
McpW2v8UsZju55MM0j865ZpAcZf9zm/mya0gY1Pm3gaRG6RAEvPENlSL6gvCxN/a
NVHFcbZv6AsePsjXhk5uu8pe7Xnp3AK0Bl/djUTWq2T+nCqDiT7lFuj8TNWyiR/A
TCWAG438lkYdvAT15N2vAgMBAAGjUTBPMB8GA1UdIwQYMBaAFFaW4el9/bzAXo7m
+ATR9tMotDZXMAkGA1UdEwQCMAAwCwYDVR0PBAQDAgTwMBQGA1UdEQQNMAuCCWxv
Y2FsaG9zdDANBgkqhkiG9w0BAQsFAAOCAQEAQkbOO8fK3o9+d43xbOEAcslQpYlX
HSbTKxZVS2moEhBsdYo6296nV3qRM8WDdg0DkSVlQnYHktIY1UWXn076+zz5pSx8
CvFFsNtomL8PVwez1ZnDl3V7dVTpnlyCrrResZjz1hS6jzm1NTXn/XHa2OSbxEw3
5cpRfrNhm0gXLGMFV/LA5NjooJZPKsWAK75adZ/RypQyc3or+LL9XEM26EXeDZwx
fUo11IB54Wcd+Wp/WBylmiBPwKm8zMp+4oCuGpCnI0YABTqPg1UzNPnPQHAX5Yfg
olpwIyYNLaf0VVw+pOcCtb27OEOJ9liGWOrvC9PER9qTprAL8oFYZK8L2A==
-----END CERTIFICATE-----
-----BEGIN RSA PRIVATE KEY-----
MIIEogIBAAKCAQEAyXYiSx7dnuNROP8KbXKGjVIHuoTZrGJESm5eSjIlWOSTsYbg
28Wueq+kPjbFmQa4Tu4C4opslRrfP+5Z3X9Vkc4QPMvCLxVD3L5UfdgYRjln8go4
ZZXYD7s6tjaIxCPfrITUeswAa+xmPfNe5WIKzZblwKFJqjW84x+ERwhims7NMqZP
2uEfetwwZ6U46ILNzjHKVtr/FLGY7ueTDNI/OuWaQHGX/c5v5smtIGNT5t4GkRuk
QBLzxDZUi+oLwsTf2jVRxXG2b+gLHj7I14ZObrvKXu156dwCtAZf3Y1E1qtk/pwq
g4k+5Rbo/EzVsokfwEwlgBuN/JZGHbwE9eTdrwIDAQABAoIBAFM6ldJZDw/sM4sL
eoBa1xGdOQoqhk78TeA+FoAqlVlTHV0zLsQ8t+eBlqYJNLsSlqQtGk4DB/bVojOk
QcYLLAvPiM/FEhUngOC6VOekleq1HqdU55W4QQnGvOu4PepiM67vNWUB0I7FnDut
xp+XUIU8+PAK8gb6qm1egORjp3Dyj+b/MjCU/FvM2hv4k/WUfXhRdshGJTFMLryx
d9zGNLp7J3wVLV+ANpvrMPE62zh7ngLov+doeYbYn6TWRg2mizsFadizQmd+3yIl
RcGUbEZgUFCFPHkxhwBYuAwhFn+X9cQl8CVMmA84gWH32akQJ5MFHRqQBL3jcWHI
gp2CkLECgYEA/jRyh6l6dR1dj/tdii3q2GPDaRiBBV9woTLyPKJJNf6EBDCn65Nc
YYIEdIkSUvSxq7IXqL4ZdfahIz6ku326G5TLsodZ1LmehZFUDj2KUvnLqmdyxRFt
zBuT7pe9qWfJpwUwTDeeMsNaMtmJiggyPtVL+ezhHfV8u/jzOYZaEIcCgYEAyuJW
OcCR/Wcn5310IdXPl7nO74JdEBgCjbHz6f2q0wNeCnGWF0qJv/1eulJ3JrdkRySB
E6U4VNcLyOSaL0MiyyPGN94aWTgHcVNZhqzCu3c9T4wD/J2tAOaH5u9SpB20VbES
pWlm6EeDzeRsJBFYpAPonbi3kKiX1wDFPFmHW5kCgYAzIluzfFz8t/Z9IwQy6n+m
HZNOTbaOXR9r3bKqjb6KVPM7YIo2sgLQPnYk9vmvpDclIYLu16aJex341/4NFQJd
z/WVqPJh/yCrH4u3/ZsYi9TzJzIIADSE7Ts5sF5feFgw97M6camp7m/zcJzhHjr1
NrS8xnCWNS5tJWvPs33kewKBgACAYrot0a6QrLaTxs+2mZbEbNCGv/gkNw1mnTW8
3Mk8vuTDtx1Dn+eLlspbHdRIq8TJQFBuHh+HkI3kksT/I3zhD8JfmC0USGBtVlFQ
6AJSnyItNG1RbnYMG9XkTY3+TM3RbDxgcFKuqpK9t863BEMTh2WsaTfAUu/DHrmx
dvYxAoGANtcH0gwpuzrteHp8/zQ4C7Bhtv2sg/t82PlEAvP/vRDh7kcHM3Hftb4l
2hRDq+bDjs55EUnXgfL3Eea8PK+1/Korfnk6W6B9JW6LrOOMjW/FJxu/kaZWQfY0
DsooXUw7jyRrhTonJVqhcy6LjXzzEXIJ0CDVoE6Pz3G35xXBEOw=
-----END RSA PRIVATE KEY-----
